target datalayout = "e-m:e-p270:32:32-p271:32:32-p272:64:64-i64:64-i128:128-f80:128-n8:16:32:64-S128"
target triple = "x86_64-pc-linux-gnu"

%"class.cv::hfs::orutils::Vector2" = type { %"struct.cv::hfs::orutils::Vector2_" }
%"struct.cv::hfs::orutils::Vector2_" = type { i32, i32 }
%"struct.cv::Ptr" = type { %"class.std::shared_ptr" }
%"class.std::shared_ptr" = type { %"class.std::__shared_ptr" }
%"class.std::__shared_ptr" = type { ptr, %"class.std::__shared_count" }
%"class.std::__shared_count" = type { ptr }
%"struct.cv::Ptr.0" = type { %"class.std::shared_ptr.1" }
%"class.std::shared_ptr.1" = type { %"class.std::__shared_ptr.2" }
%"class.std::__shared_ptr.2" = type { ptr, %"class.std::__shared_count" }
%"class.cv::hfs::Magnitude" = type { %"struct.cv::Ptr", %"struct.cv::Ptr", %"struct.cv::Ptr", %"struct.cv::Ptr.0", %"struct.cv::Ptr.0", %"class.cv::hfs::orutils::Vector2" }
%"class.cv::hfs::orutils::MemoryBlock" = type { ptr, ptr, i64 }
%"class.cv::hfs::orutils::MemoryBlock.5" = type { ptr, ptr, i64 }

; Function Attrs: mustprogress nounwind uwtable
define linkonce_odr hidden noundef ptr @_ZNKSt12__shared_ptrIN2cv3hfs7orutils5ImageIiEELN9__gnu_cxx12_Lock_policyE2EE3getEv(ptr noundef nonnull align 8 dereferenceable(16) %0) #2 comdat align 2 {
  %2 = alloca ptr, align 8
  store ptr %0, ptr %2, align 8, !tbaa !23
  %3 = load ptr, ptr %2, align 8
  %4 = getelementptr inbounds nuw %"class.std::__shared_ptr", ptr %3, i32 0, i32 0
  %5 = load ptr, ptr %4, align 8, !tbaa !97
  ret ptr %5
}

; Function Attrs: mustprogress nounwind uwtable
define linkonce_odr hidden noundef ptr @_ZNKSt12__shared_ptrIN2cv3hfs7orutils5ImageIhEELN9__gnu_cxx12_Lock_policyE2EE3getEv(ptr noundef nonnull align 8 dereferenceable(16) %0) #2 comdat align 2 {
  %2 = alloca ptr, align 8
  store ptr %0, ptr %2, align 8, !tbaa !27
  %3 = load ptr, ptr %2, align 8
  %4 = getelementptr inbounds nuw %"class.std::__shared_ptr.2", ptr %3, i32 0, i32 0
  %5 = load ptr, ptr %4, align 8, !tbaa !101
  ret ptr %5
}

; Function Attrs: inlinehint mustprogress nounwind uwtable
define linkonce_odr hidden noundef ptr @_ZN2cv3hfs7orutils11MemoryBlockIiE10getCpuDataEv(ptr noundef nonnull align 8 dereferenceable(24) %0) #1 comdat align 2 {
  %2 = alloca ptr, align 8
  store ptr %0, ptr %2, align 8, !tbaa !59
  %3 = load ptr, ptr %2, align 8
  %4 = getelementptr inbounds nuw %"class.cv::hfs::orutils::MemoryBlock", ptr %3, i32 0, i32 1
  %5 = load ptr, ptr %4, align 8, !tbaa !61
  ret ptr %5
}

; Function Attrs: mustprogress nounwind uwtable
define linkonce_odr hidden noundef ptr @_ZNK2cv3PtrINS_3hfs7orutils5ImageIiEEEptEv(ptr noundef nonnull align 8 dereferenceable(16) %0) #2 comdat align 2 {
  %2 = alloca ptr, align 8
  store ptr %0, ptr %2, align 8, !tbaa !10
  %3 = load ptr, ptr %2, align 8
  %4 = call noundef ptr @_ZNKSt12__shared_ptrIN2cv3hfs7orutils5ImageIiEELN9__gnu_cxx12_Lock_policyE2EE3getEv(ptr noundef nonnull align 8 dereferenceable(16) %3) #18
  ret ptr %4
}

; Function Attrs: inlinehint mustprogress nounwind uwtable
define linkonce_odr hidden noundef ptr @_ZN2cv3hfs7orutils11MemoryBlockIhE10getCpuDataEv(ptr noundef nonnull align 8 dereferenceable(24) %0) #1 comdat align 2 {
  %2 = alloca ptr, align 8
  store ptr %0, ptr %2, align 8, !tbaa !46
  %3 = load ptr, ptr %2, align 8
  %4 = getelementptr inbounds nuw %"class.cv::hfs::orutils::MemoryBlock.5", ptr %3, i32 0, i32 1
  %5 = load ptr, ptr %4, align 8, !tbaa !48
  ret ptr %5
}

; Function Attrs: mustprogress nounwind uwtable
define linkonce_odr hidden noundef ptr @_ZNK2cv3PtrINS_3hfs7orutils5ImageIhEEEptEv(ptr noundef nonnull align 8 dereferenceable(16) %0) #2 comdat align 2 {
  %2 = alloca ptr, align 8
  store ptr %0, ptr %2, align 8, !tbaa !12
  %3 = load ptr, ptr %2, align 8
  %4 = call noundef ptr @_ZNKSt12__shared_ptrIN2cv3hfs7orutils5ImageIhEELN9__gnu_cxx12_Lock_policyE2EE3getEv(ptr noundef nonnull align 8 dereferenceable(16) %3) #18
  ret ptr %4
}

; Function Attrs: mustprogress uwtable
define hidden void @_ZN2cv3hfs9Magnitude16derrivativeXYCpuEv(ptr noundef nonnull align 8 dereferenceable(88) %0) #0 align 2 {
  %2 = alloca ptr, align 8
  %3 = alloca ptr, align 8
  %4 = alloca ptr, align 8
  %5 = alloca ptr, align 8
  %6 = alloca ptr, align 8
  %7 = alloca i32, align 4
  %8 = alloca i32, align 4
  %9 = alloca i32, align 4
  %10 = alloca i32, align 4
  store ptr %0, ptr %2, align 8, !tbaa !3
  %11 = load ptr, ptr %2, align 8
  call void @llvm.lifetime.start.p0(i64 8, ptr %3) #18
  %12 = getelementptr inbounds nuw %"class.cv::hfs::Magnitude", ptr %11, i32 0, i32 3
  %13 = call noundef ptr @_ZNK2cv3PtrINS_3hfs7orutils5ImageIhEEEptEv(ptr noundef nonnull align 8 dereferenceable(16) %12) #18
  %14 = call noundef ptr @_ZN2cv3hfs7orutils11MemoryBlockIhE10getCpuDataEv(ptr noundef nonnull align 8 dereferenceable(24) %13)
  store ptr %14, ptr %3, align 8, !tbaa !41
  call void @llvm.lifetime.start.p0(i64 8, ptr %4) #18
  %15 = getelementptr inbounds nuw %"class.cv::hfs::Magnitude", ptr %11, i32 0, i32 0
  %16 = call noundef ptr @_ZNK2cv3PtrINS_3hfs7orutils5ImageIiEEEptEv(ptr noundef nonnull align 8 dereferenceable(16) %15) #18
  %17 = call noundef ptr @_ZN2cv3hfs7orutils11MemoryBlockIiE10getCpuDataEv(ptr noundef nonnull align 8 dereferenceable(24) %16)
  store ptr %17, ptr %4, align 8, !tbaa !56
  call void @llvm.lifetime.start.p0(i64 8, ptr %5) #18
  %18 = getelementptr inbounds nuw %"class.cv::hfs::Magnitude", ptr %11, i32 0, i32 1
  %19 = call noundef ptr @_ZNK2cv3PtrINS_3hfs7orutils5ImageIiEEEptEv(ptr noundef nonnull align 8 dereferenceable(16) %18) #18
  %20 = call noundef ptr @_ZN2cv3hfs7orutils11MemoryBlockIiE10getCpuDataEv(ptr noundef nonnull align 8 dereferenceable(24) %19)
  store ptr %20, ptr %5, align 8, !tbaa !56
  call void @llvm.lifetime.start.p0(i64 8, ptr %6) #18
  %21 = getelementptr inbounds nuw %"class.cv::hfs::Magnitude", ptr %11, i32 0, i32 2
  %22 = call noundef ptr @_ZNK2cv3PtrINS_3hfs7orutils5ImageIiEEEptEv(ptr noundef nonnull align 8 dereferenceable(16) %21) #18
  %23 = call noundef ptr @_ZN2cv3hfs7orutils11MemoryBlockIiE10getCpuDataEv(ptr noundef nonnull align 8 dereferenceable(24) %22)
  store ptr %23, ptr %6, align 8, !tbaa !56
  call void @llvm.lifetime.start.p0(i64 4, ptr %7) #18
  store i32 0, ptr %7, align 4, !tbaa !8
  br label %24

24:                                               ; preds = %232, %1
  %25 = load i32, ptr %7, align 4, !tbaa !8
  %26 = getelementptr inbounds nuw %"class.cv::hfs::Magnitude", ptr %11, i32 0, i32 5
  %27 = getelementptr inbounds nuw %"struct.cv::hfs::orutils::Vector2_", ptr %26, i32 0, i32 1
  %28 = load i32, ptr %27, align 4, !tbaa !18
  %29 = icmp slt i32 %25, %28
  br i1 %29, label %31, label %30

30:                                               ; preds = %24
  store i32 2, ptr %8, align 4
  call void @llvm.lifetime.end.p0(i64 4, ptr %7) #18
  br label %235

31:                                               ; preds = %24
  call void @llvm.lifetime.start.p0(i64 4, ptr %9) #18
  store i32 0, ptr %9, align 4, !tbaa !8
  br label %32

32:                                               ; preds = %228, %31
  %33 = load i32, ptr %9, align 4, !tbaa !8
  %34 = getelementptr inbounds nuw %"class.cv::hfs::Magnitude", ptr %11, i32 0, i32 5
  %35 = getelementptr inbounds nuw %"struct.cv::hfs::orutils::Vector2_", ptr %34, i32 0, i32 0
  %36 = load i32, ptr %35, align 8, !tbaa !16
  %37 = icmp slt i32 %33, %36
  br i1 %37, label %39, label %38

38:                                               ; preds = %32
  store i32 5, ptr %8, align 4
  call void @llvm.lifetime.end.p0(i64 4, ptr %9) #18
  br label %231

39:                                               ; preds = %32
  call void @llvm.lifetime.start.p0(i64 4, ptr %10) #18
  %40 = load i32, ptr %7, align 4, !tbaa !8
  %41 = getelementptr inbounds nuw %"class.cv::hfs::Magnitude", ptr %11, i32 0, i32 5
  %42 = getelementptr inbounds nuw %"struct.cv::hfs::orutils::Vector2_", ptr %41, i32 0, i32 0
  %43 = load i32, ptr %42, align 8, !tbaa !16
  %44 = mul nsw i32 %40, %43
  %45 = load i32, ptr %9, align 4, !tbaa !8
  %46 = add nsw i32 %44, %45
  store i32 %46, ptr %10, align 4, !tbaa !8
  %47 = load i32, ptr %9, align 4, !tbaa !8
  %48 = icmp eq i32 %47, 0
  br i1 %48, label %49, label %68

49:                                               ; preds = %39
  %50 = load ptr, ptr %3, align 8, !tbaa !41
  %51 = load i32, ptr %10, align 4, !tbaa !8
  %52 = add nsw i32 %51, 1
  %53 = sext i32 %52 to i64
  %54 = getelementptr inbounds i8, ptr %50, i64 %53
  %55 = load i8, ptr %54, align 1, !tbaa !42
  %56 = zext i8 %55 to i32
  %57 = load ptr, ptr %3, align 8, !tbaa !41
  %58 = load i32, ptr %10, align 4, !tbaa !8
  %59 = sext i32 %58 to i64
  %60 = getelementptr inbounds i8, ptr %57, i64 %59
  %61 = load i8, ptr %60, align 1, !tbaa !42
  %62 = zext i8 %61 to i32
  %63 = sub nsw i32 %56, %62
  %64 = load ptr, ptr %4, align 8, !tbaa !56
  %65 = load i32, ptr %10, align 4, !tbaa !8
  %66 = sext i32 %65 to i64
  %67 = getelementptr inbounds i32, ptr %64, i64 %66
  store i32 %63, ptr %67, align 4, !tbaa !8
  br label %115

68:                                               ; preds = %39
  %69 = load i32, ptr %9, align 4, !tbaa !8
  %70 = getelementptr inbounds nuw %"class.cv::hfs::Magnitude", ptr %11, i32 0, i32 5
  %71 = getelementptr inbounds nuw %"struct.cv::hfs::orutils::Vector2_", ptr %70, i32 0, i32 0
  %72 = load i32, ptr %71, align 8, !tbaa !16
  %73 = sub nsw i32 %72, 1
  %74 = icmp eq i32 %69, %73
  br i1 %74, label %75, label %94

75:                                               ; preds = %68
  %76 = load ptr, ptr %3, align 8, !tbaa !41
  %77 = load i32, ptr %10, align 4, !tbaa !8
  %78 = sext i32 %77 to i64
  %79 = getelementptr inbounds i8, ptr %76, i64 %78
  %80 = load i8, ptr %79, align 1, !tbaa !42
  %81 = zext i8 %80 to i32
  %82 = load ptr, ptr %3, align 8, !tbaa !41
  %83 = load i32, ptr %10, align 4, !tbaa !8
  %84 = sub nsw i32 %83, 1
  %85 = sext i32 %84 to i64
  %86 = getelementptr inbounds i8, ptr %82, i64 %85
  %87 = load i8, ptr %86, align 1, !tbaa !42
  %88 = zext i8 %87 to i32
  %89 = sub nsw i32 %81, %88
  %90 = load ptr, ptr %4, align 8, !tbaa !56
  %91 = load i32, ptr %10, align 4, !tbaa !8
  %92 = sext i32 %91 to i64
  %93 = getelementptr inbounds i32, ptr %90, i64 %92
  store i32 %89, ptr %93, align 4, !tbaa !8
  br label %114

94:                                               ; preds = %68
  %95 = load ptr, ptr %3, align 8, !tbaa !41
  %96 = load i32, ptr %10, align 4, !tbaa !8
  %97 = add nsw i32 %96, 1
  %98 = sext i32 %97 to i64
  %99 = getelementptr inbounds i8, ptr %95, i64 %98
  %100 = load i8, ptr %99, align 1, !tbaa !42
  %101 = zext i8 %100 to i32
  %102 = load ptr, ptr %3, align 8, !tbaa !41
  %103 = load i32, ptr %10, align 4, !tbaa !8
  %104 = sub nsw i32 %103, 1
  %105 = sext i32 %104 to i64
  %106 = getelementptr inbounds i8, ptr %102, i64 %105
  %107 = load i8, ptr %106, align 1, !tbaa !42
  %108 = zext i8 %107 to i32
  %109 = sub nsw i32 %101, %108
  %110 = load ptr, ptr %4, align 8, !tbaa !56
  %111 = load i32, ptr %10, align 4, !tbaa !8
  %112 = sext i32 %111 to i64
  %113 = getelementptr inbounds i32, ptr %110, i64 %112
  store i32 %109, ptr %113, align 4, !tbaa !8
  br label %114

114:                                              ; preds = %94, %75
  br label %115

115:                                              ; preds = %114, %49
  %116 = load i32, ptr %7, align 4, !tbaa !8
  %117 = icmp eq i32 %116, 0
  br i1 %117, label %118, label %140

118:                                              ; preds = %115
  %119 = load ptr, ptr %3, align 8, !tbaa !41
  %120 = load i32, ptr %10, align 4, !tbaa !8
  %121 = getelementptr inbounds nuw %"class.cv::hfs::Magnitude", ptr %11, i32 0, i32 5
  %122 = getelementptr inbounds nuw %"struct.cv::hfs::orutils::Vector2_", ptr %121, i32 0, i32 0
  %123 = load i32, ptr %122, align 8, !tbaa !16
  %124 = add nsw i32 %120, %123
  %125 = sext i32 %124 to i64
  %126 = getelementptr inbounds i8, ptr %119, i64 %125
  %127 = load i8, ptr %126, align 1, !tbaa !42
  %128 = zext i8 %127 to i32
  %129 = load ptr, ptr %3, align 8, !tbaa !41
  %130 = load i32, ptr %10, align 4, !tbaa !8
  %131 = sext i32 %130 to i64
  %132 = getelementptr inbounds i8, ptr %129, i64 %131
  %133 = load i8, ptr %132, align 1, !tbaa !42
  %134 = zext i8 %133 to i32
  %135 = sub nsw i32 %128, %134
  %136 = load ptr, ptr %5, align 8, !tbaa !56
  %137 = load i32, ptr %10, align 4, !tbaa !8
  %138 = sext i32 %137 to i64
  %139 = getelementptr inbounds i32, ptr %136, i64 %138
  store i32 %135, ptr %139, align 4, !tbaa !8
  br label %196

140:                                              ; preds = %115
  %141 = load i32, ptr %7, align 4, !tbaa !8
  %142 = getelementptr inbounds nuw %"class.cv::hfs::Magnitude", ptr %11, i32 0, i32 5
  %143 = getelementptr inbounds nuw %"struct.cv::hfs::orutils::Vector2_", ptr %142, i32 0, i32 1
  %144 = load i32, ptr %143, align 4, !tbaa !18
  %145 = sub nsw i32 %144, 1
  %146 = icmp eq i32 %141, %145
  br i1 %146, label %147, label %169

147:                                              ; preds = %140
  %148 = load ptr, ptr %3, align 8, !tbaa !41
  %149 = load i32, ptr %10, align 4, !tbaa !8
  %150 = sext i32 %149 to i64
  %151 = getelementptr inbounds i8, ptr %148, i64 %150
  %152 = load i8, ptr %151, align 1, !tbaa !42
  %153 = zext i8 %152 to i32
  %154 = load ptr, ptr %3, align 8, !tbaa !41
  %155 = load i32, ptr %10, align 4, !tbaa !8
  %156 = getelementptr inbounds nuw %"class.cv::hfs::Magnitude", ptr %11, i32 0, i32 5
  %157 = getelementptr inbounds nuw %"struct.cv::hfs::orutils::Vector2_", ptr %156, i32 0, i32 0
  %158 = load i32, ptr %157, align 8, !tbaa !16
  %159 = sub nsw i32 %155, %158
  %160 = sext i32 %159 to i64
  %161 = getelementptr inbounds i8, ptr %154, i64 %160
  %162 = load i8, ptr %161, align 1, !tbaa !42
  %163 = zext i8 %162 to i32
  %164 = sub nsw i32 %153, %163
  %165 = load ptr, ptr %5, align 8, !tbaa !56
  %166 = load i32, ptr %10, align 4, !tbaa !8
  %167 = sext i32 %166 to i64
  %168 = getelementptr inbounds i32, ptr %165, i64 %167
  store i32 %164, ptr %168, align 4, !tbaa !8
  br label %195

169:                                              ; preds = %140
  %170 = load ptr, ptr %3, align 8, !tbaa !41
  %171 = load i32, ptr %10, align 4, !tbaa !8
  %172 = getelementptr inbounds nuw %"class.cv::hfs::Magnitude", ptr %11, i32 0, i32 5
  %173 = getelementptr inbounds nuw %"struct.cv::hfs::orutils::Vector2_", ptr %172, i32 0, i32 0
  %174 = load i32, ptr %173, align 8, !tbaa !16
  %175 = add nsw i32 %171, %174
  %176 = sext i32 %175 to i64
  %177 = getelementptr inbounds i8, ptr %170, i64 %176
  %178 = load i8, ptr %177, align 1, !tbaa !42
  %179 = zext i8 %178 to i32
  %180 = load ptr, ptr %3, align 8, !tbaa !41
  %181 = load i32, ptr %10, align 4, !tbaa !8
  %182 = getelementptr inbounds nuw %"class.cv::hfs::Magnitude", ptr %11, i32 0, i32 5
  %183 = getelementptr inbounds nuw %"struct.cv::hfs::orutils::Vector2_", ptr %182, i32 0, i32 0
  %184 = load i32, ptr %183, align 8, !tbaa !16
  %185 = sub nsw i32 %181, %184
  %186 = sext i32 %185 to i64
  %187 = getelementptr inbounds i8, ptr %180, i64 %186
  %188 = load i8, ptr %187, align 1, !tbaa !42
  %189 = zext i8 %188 to i32
  %190 = sub nsw i32 %179, %189
  %191 = load ptr, ptr %5, align 8, !tbaa !56
  %192 = load i32, ptr %10, align 4, !tbaa !8
  %193 = sext i32 %192 to i64
  %194 = getelementptr inbounds i32, ptr %191, i64 %193
  store i32 %190, ptr %194, align 4, !tbaa !8
  br label %195

195:                                              ; preds = %169, %147
  br label %196

196:                                              ; preds = %195, %118
  %197 = load ptr, ptr %4, align 8, !tbaa !56
  %198 = load i32, ptr %10, align 4, !tbaa !8
  %199 = sext i32 %198 to i64
  %200 = getelementptr inbounds i32, ptr %197, i64 %199
  %201 = load i32, ptr %200, align 4, !tbaa !8
  %202 = load ptr, ptr %4, align 8, !tbaa !56
  %203 = load i32, ptr %10, align 4, !tbaa !8
  %204 = sext i32 %203 to i64
  %205 = getelementptr inbounds i32, ptr %202, i64 %204
  %206 = load i32, ptr %205, align 4, !tbaa !8
  %207 = mul nsw i32 %201, %206
  %208 = load ptr, ptr %5, align 8, !tbaa !56
  %209 = load i32, ptr %10, align 4, !tbaa !8
  %210 = sext i32 %209 to i64
  %211 = getelementptr inbounds i32, ptr %208, i64 %210
  %212 = load i32, ptr %211, align 4, !tbaa !8
  %213 = load ptr, ptr %5, align 8, !tbaa !56
  %214 = load i32, ptr %10, align 4, !tbaa !8
  %215 = sext i32 %214 to i64
  %216 = getelementptr inbounds i32, ptr %213, i64 %215
  %217 = load i32, ptr %216, align 4, !tbaa !8
  %218 = mul nsw i32 %212, %217
  %219 = add nsw i32 %207, %218
  %220 = sitofp i32 %219 to double
  %221 = call double @sqrt(double noundef %220) #18, !tbaa !8
  %222 = fadd double 5.000000e-01, %221
  %223 = fptosi double %222 to i32
  %224 = load ptr, ptr %6, align 8, !tbaa !56
  %225 = load i32, ptr %10, align 4, !tbaa !8
  %226 = sext i32 %225 to i64
  %227 = getelementptr inbounds i32, ptr %224, i64 %226
  store i32 %223, ptr %227, align 4, !tbaa !8
  call void @llvm.lifetime.end.p0(i64 4, ptr %10) #18
  br label %228

228:                                              ; preds = %196
  %229 = load i32, ptr %9, align 4, !tbaa !8
  %230 = add nsw i32 %229, 1
  store i32 %230, ptr %9, align 4, !tbaa !8
  br label %32, !llvm.loop !57

231:                                              ; preds = %38
  br label %232

232:                                              ; preds = %231
  %233 = load i32, ptr %7, align 4, !tbaa !8
  %234 = add nsw i32 %233, 1
  store i32 %234, ptr %7, align 4, !tbaa !8
  br label %24, !llvm.loop !58

235:                                              ; preds = %30
  call void @llvm.lifetime.end.p0(i64 8, ptr %6) #18
  call void @llvm.lifetime.end.p0(i64 8, ptr %5) #18
  call void @llvm.lifetime.end.p0(i64 8, ptr %4) #18
  call void @llvm.lifetime.end.p0(i64 8, ptr %3) #18
  ret void
}