; Function Attrs: mustprogress nofree norecurse nosync nounwind memory(readwrite, inaccessiblemem: none) uwtable
define hidden void @_ZN2cv3hfs9Magnitude16derrivativeXYCpuEv(ptr noundef nonnull readonly align 8 captures(none) dereferenceable(88) %0) local_unnamed_addr #5 align 2 {
  %2 = getelementptr inbounds nuw i8, ptr %0, i64 48
  %3 = load ptr, ptr %2, align 8, !tbaa !35
  %4 = getelementptr inbounds nuw i8, ptr %3, i64 8
  %5 = load ptr, ptr %4, align 8, !tbaa !31
  %6 = load ptr, ptr %0, align 8, !tbaa !20
  %7 = getelementptr inbounds nuw i8, ptr %6, i64 8
  %8 = load ptr, ptr %7, align 8, !tbaa !12
  %9 = getelementptr inbounds nuw i8, ptr %0, i64 16
  %10 = load ptr, ptr %9, align 8, !tbaa !20
  %11 = getelementptr inbounds nuw i8, ptr %10, i64 8
  %12 = load ptr, ptr %11, align 8, !tbaa !12
  %13 = getelementptr inbounds nuw i8, ptr %0, i64 32
  %14 = load ptr, ptr %13, align 8, !tbaa !20
  %15 = getelementptr inbounds nuw i8, ptr %14, i64 8
  %16 = load ptr, ptr %15, align 8, !tbaa !12
  %17 = getelementptr inbounds nuw i8, ptr %0, i64 80
  %18 = getelementptr inbounds nuw i8, ptr %0, i64 84
  %19 = load i32, ptr %18, align 4, !tbaa !53
  %20 = icmp sgt i32 %19, 0
  br i1 %20, label %.preheader.lr.ph, label %._crit_edge61

.preheader.lr.ph:                                 ; preds = %1
  %21 = load i32, ptr %17, align 8, !tbaa !55
  %22 = icmp sgt i32 %21, 0
  br i1 %22, label %.preheader.preheader, label %._crit_edge61

.preheader.preheader:                             ; preds = %.preheader.lr.ph
  %23 = getelementptr i8, ptr %5, i64 1
  br label %.preheader

.preheader:                                       ; preds = %.preheader.preheader, %._crit_edge
  %24 = phi i32 [ %82, %._crit_edge ], [ %21, %.preheader.preheader ]
  %.059 = phi i32 [ %83, %._crit_edge ], [ 0, %.preheader.preheader ]
  %25 = icmp sgt i32 %24, 0
  br i1 %25, label %.lr.ph, label %._crit_edge

.lr.ph:                                           ; preds = %.preheader
  %26 = icmp eq i32 %.059, 0
  br i1 %26, label %.lr.ph.split.us, label %.lr.ph.split

.lr.ph.split.us:                                  ; preds = %.lr.ph, %57
  %indvars.iv = phi i64 [ %indvars.iv.next, %57 ], [ 0, %.lr.ph ]
  %27 = phi i32 [ %79, %57 ], [ %24, %.lr.ph ]
  %28 = icmp eq i64 %indvars.iv, 0
  br i1 %28, label %51, label %29

29:                                               ; preds = %.lr.ph.split.us
  %30 = add nsw i32 %27, -1
  %31 = zext i32 %30 to i64
  %32 = icmp eq i64 %indvars.iv, %31
  %33 = getelementptr i8, ptr %5, i64 %indvars.iv
  br i1 %32, label %43, label %34

34:                                               ; preds = %29
  %35 = getelementptr i8, ptr %33, i64 1
  %36 = load i8, ptr %35, align 1, !tbaa !24
  %37 = zext i8 %36 to i32
  %38 = getelementptr i8, ptr %33, i64 -1
  %39 = load i8, ptr %38, align 1, !tbaa !24
  %40 = zext i8 %39 to i32
  %41 = sub nsw i32 %37, %40
  %42 = getelementptr inbounds nuw i32, ptr %8, i64 %indvars.iv
  store i32 %41, ptr %42, align 4, !tbaa !25
  br label %57

43:                                               ; preds = %29
  %44 = load i8, ptr %33, align 1, !tbaa !24
  %45 = zext i8 %44 to i32
  %46 = getelementptr i8, ptr %33, i64 -1
  %47 = load i8, ptr %46, align 1, !tbaa !24
  %48 = zext i8 %47 to i32
  %49 = sub nsw i32 %45, %48
  %50 = getelementptr inbounds nuw i32, ptr %8, i64 %indvars.iv
  store i32 %49, ptr %50, align 4, !tbaa !25
  br label %57

51:                                               ; preds = %.lr.ph.split.us
  %52 = load i8, ptr %23, align 1, !tbaa !24
  %53 = zext i8 %52 to i32
  %54 = load i8, ptr %5, align 1, !tbaa !24
  %55 = zext i8 %54 to i32
  %56 = sub nsw i32 %53, %55
  store i32 %56, ptr %8, align 4, !tbaa !25
  br label %57

57:                                               ; preds = %51, %43, %34
  %58 = load i32, ptr %17, align 8, !tbaa !55
  %59 = trunc nuw nsw i64 %indvars.iv to i32
  %60 = add nsw i32 %58, %59
  %61 = sext i32 %60 to i64
  %62 = getelementptr inbounds i8, ptr %5, i64 %61
  %63 = load i8, ptr %62, align 1, !tbaa !24
  %64 = zext i8 %63 to i32
  %65 = getelementptr inbounds nuw i8, ptr %5, i64 %indvars.iv
  %66 = load i8, ptr %65, align 1, !tbaa !24
  %67 = zext i8 %66 to i32
  %68 = sub nsw i32 %64, %67
  %69 = getelementptr inbounds nuw i32, ptr %12, i64 %indvars.iv
  store i32 %68, ptr %69, align 4, !tbaa !25
  %70 = getelementptr inbounds nuw i32, ptr %8, i64 %indvars.iv
  %71 = load i32, ptr %70, align 4, !tbaa !25
  %72 = mul nsw i32 %71, %71
  %73 = mul nsw i32 %68, %68
  %74 = add nuw nsw i32 %73, %72
  %75 = uitofp nneg i32 %74 to double
  %sqrt.us = tail call double @llvm.sqrt.f64(double %75)
  %76 = fadd double %sqrt.us, 5.000000e-01
  %77 = fptosi double %76 to i32
  %78 = getelementptr inbounds nuw i32, ptr %16, i64 %indvars.iv
  store i32 %77, ptr %78, align 4, !tbaa !25
  %indvars.iv.next = add nuw nsw i64 %indvars.iv, 1
  %79 = load i32, ptr %17, align 8, !tbaa !55
  %80 = sext i32 %79 to i64
  %81 = icmp slt i64 %indvars.iv.next, %80
  br i1 %81, label %.lr.ph.split.us, label %._crit_edge, !llvm.loop !56

._crit_edge61:                                    ; preds = %._crit_edge, %.preheader.lr.ph, %1
  ret void

._crit_edge:                                      ; preds = %137, %57, %.preheader
  %82 = phi i32 [ %24, %.preheader ], [ %79, %57 ], [ %149, %137 ]
  %83 = add nuw nsw i32 %.059, 1
  %84 = load i32, ptr %18, align 4, !tbaa !53
  %85 = icmp slt i32 %83, %84
  br i1 %85, label %.preheader, label %._crit_edge61, !llvm.loop !57

.lr.ph.split:                                     ; preds = %.lr.ph, %137
  %86 = phi i32 [ %149, %137 ], [ %24, %.lr.ph ]
  %.05658 = phi i32 [ %148, %137 ], [ 0, %.lr.ph ]
  %87 = mul nsw i32 %86, %.059
  %88 = add nsw i32 %87, %.05658
  %89 = icmp eq i32 %.05658, 0
  br i1 %89, label %90, label %94

90:                                               ; preds = %.lr.ph.split
  %91 = sext i32 %88 to i64
  %92 = getelementptr i8, ptr %5, i64 %91
  %93 = getelementptr i8, ptr %92, i64 1
  br label %104

94:                                               ; preds = %.lr.ph.split
  %95 = add nsw i32 %86, -1
  %96 = icmp eq i32 %.05658, %95
  %97 = sext i32 %88 to i64
  %98 = getelementptr i8, ptr %5, i64 %97
  br i1 %96, label %99, label %101

99:                                               ; preds = %94
  %100 = getelementptr i8, ptr %98, i64 -1
  br label %104

101:                                              ; preds = %94
  %102 = getelementptr i8, ptr %98, i64 1
  %103 = getelementptr i8, ptr %98, i64 -1
  br label %104

104:                                              ; preds = %99, %101, %90
  %.sink.in = phi ptr [ %100, %99 ], [ %103, %101 ], [ %92, %90 ]
  %.sink69.in.in = phi ptr [ %98, %99 ], [ %102, %101 ], [ %93, %90 ]
  %.sink68 = phi i64 [ %97, %99 ], [ %97, %101 ], [ %91, %90 ]
  %.sink69.in = load i8, ptr %.sink69.in.in, align 1, !tbaa !24
  %.sink69 = zext i8 %.sink69.in to i32
  %.sink = load i8, ptr %.sink.in, align 1, !tbaa !24
  %105 = zext i8 %.sink to i32
  %106 = sub nsw i32 %.sink69, %105
  %107 = getelementptr inbounds i32, ptr %8, i64 %.sink68
  store i32 %106, ptr %107, align 4, !tbaa !25
  %108 = load i32, ptr %18, align 4, !tbaa !53
  %109 = add nsw i32 %108, -1
  %110 = icmp eq i32 %.059, %109
  br i1 %110, label %111, label %123

111:                                              ; preds = %104
  %112 = sext i32 %88 to i64
  %113 = getelementptr inbounds i8, ptr %5, i64 %112
  %114 = load i8, ptr %113, align 1, !tbaa !24
  %115 = zext i8 %114 to i32
  %116 = load i32, ptr %17, align 8, !tbaa !55
  %117 = sub nsw i32 %88, %116
  %118 = sext i32 %117 to i64
  %119 = getelementptr inbounds i8, ptr %5, i64 %118
  %120 = load i8, ptr %119, align 1, !tbaa !24
  %121 = zext i8 %120 to i32
  %122 = sub nsw i32 %115, %121
  br label %137

123:                                              ; preds = %104
  %124 = load i32, ptr %17, align 8, !tbaa !55
  %125 = add nsw i32 %124, %88
  %126 = sext i32 %125 to i64
  %127 = getelementptr inbounds i8, ptr %5, i64 %126
  %128 = load i8, ptr %127, align 1, !tbaa !24
  %129 = zext i8 %128 to i32
  %130 = sub nsw i32 %88, %124
  %131 = sext i32 %130 to i64
  %132 = getelementptr inbounds i8, ptr %5, i64 %131
  %133 = load i8, ptr %132, align 1, !tbaa !24
  %134 = zext i8 %133 to i32
  %135 = sub nsw i32 %129, %134
  %136 = sext i32 %88 to i64
  br label %137

137:                                              ; preds = %111, %123
  %.sink73 = phi i64 [ %112, %111 ], [ %136, %123 ]
  %.sink71 = phi i32 [ %122, %111 ], [ %135, %123 ]
  %138 = getelementptr inbounds i32, ptr %12, i64 %.sink73
  store i32 %.sink71, ptr %138, align 4, !tbaa !25
  %139 = getelementptr inbounds i32, ptr %8, i64 %.sink73
  %140 = load i32, ptr %139, align 4, !tbaa !25
  %141 = mul nsw i32 %140, %140
  %142 = mul nsw i32 %.sink71, %.sink71
  %143 = add nuw nsw i32 %142, %141
  %144 = uitofp nneg i32 %143 to double
  %sqrt = tail call double @llvm.sqrt.f64(double %144)
  %145 = fadd double %sqrt, 5.000000e-01
  %146 = fptosi double %145 to i32
  %147 = getelementptr inbounds i32, ptr %16, i64 %.sink73
  store i32 %146, ptr %147, align 4, !tbaa !25
  %148 = add nuw nsw i32 %.05658, 1
  %149 = load i32, ptr %17, align 8, !tbaa !55
  %150 = icmp slt i32 %148, %149
  br i1 %150, label %.lr.ph.split, label %._crit_edge, !llvm.loop !56
}